target datalayout = "e-m:e-p270:32:32-p271:32:32-p272:64:64-i64:64-i128:128-f80:128-n8:16:32:64-S128"
target triple = "x86_64-pc-linux-gnu"

%struct.TclStubs = type { i32, ptr, ptr, ptr, ptr, ptr, ptr, ptr, ptr, ptr, ptr, ptr, ptr, ptr, ptr, ptr, ptr, ptr, ptr, ptr, ptr, ptr, ptr, ptr, ptr, ptr, ptr, ptr, ptr, ptr, ptr, ptr, ptr, ptr, ptr, ptr, ptr, ptr, ptr, ptr, ptr, ptr, ptr, ptr, ptr, ptr, ptr, ptr, ptr, ptr, ptr, ptr, ptr, ptr, ptr, ptr, ptr, ptr, ptr, ptr, ptr, ptr, ptr, ptr, ptr, ptr, ptr, ptr, ptr, ptr, ptr, ptr, ptr, ptr, ptr, ptr, ptr, ptr, ptr, ptr, ptr, ptr, ptr, ptr, ptr, ptr, ptr, ptr, ptr, ptr, ptr, ptr, ptr, ptr, ptr, ptr, ptr, ptr, ptr, ptr, ptr, ptr, ptr, ptr, ptr, ptr, ptr, ptr, ptr, ptr, ptr, ptr, ptr, ptr, ptr, ptr, ptr, ptr, ptr, ptr, ptr, ptr, ptr, ptr, ptr, ptr, ptr, ptr, ptr, ptr, ptr, ptr, ptr, ptr, ptr, ptr, ptr, ptr, ptr, ptr, ptr, ptr, ptr, ptr, ptr, ptr, ptr, ptr, ptr, ptr, ptr, ptr, ptr, ptr, ptr, ptr, ptr, ptr, ptr, ptr, ptr, ptr, ptr, ptr, ptr, ptr, ptr, ptr, ptr, ptr, ptr, ptr, ptr, ptr, ptr, ptr, ptr, ptr, ptr, ptr, ptr, ptr, ptr, ptr, ptr, ptr, ptr, ptr, ptr, ptr, ptr, ptr, ptr, ptr, ptr, ptr, ptr, ptr, ptr, ptr, ptr, ptr, ptr, ptr, ptr, ptr, ptr, ptr, ptr, ptr, ptr, ptr, ptr, ptr, ptr, ptr, ptr, ptr, ptr, ptr, ptr, ptr, ptr, ptr, ptr, ptr, ptr, ptr, ptr, ptr, ptr, ptr, ptr, ptr, ptr, ptr, ptr, ptr, ptr, ptr, ptr, ptr, ptr, ptr, ptr, ptr, ptr, ptr, ptr, ptr, ptr, ptr, ptr, ptr, ptr, ptr, ptr, ptr, ptr, ptr, ptr, ptr, ptr, ptr, ptr, ptr, ptr, ptr, ptr, ptr, ptr, ptr, ptr, ptr, ptr, ptr, ptr, ptr, ptr, ptr, ptr, ptr, ptr, ptr, ptr, ptr, ptr, ptr, ptr, ptr, ptr, ptr, ptr, ptr, ptr, ptr, ptr, ptr, ptr, ptr, ptr, ptr, ptr, ptr, ptr, ptr, ptr, ptr, ptr, ptr, ptr, ptr, ptr, ptr, ptr, ptr, ptr, ptr, ptr, ptr, ptr, ptr, ptr, ptr, ptr, ptr, ptr, ptr, ptr, ptr, ptr, ptr, ptr, ptr, ptr, ptr, ptr, ptr, ptr, ptr, ptr, ptr, ptr, ptr, ptr, ptr, ptr, ptr, ptr, ptr, ptr, ptr, ptr, ptr, ptr, ptr, ptr, ptr, ptr, ptr, ptr, ptr, ptr, ptr, ptr, ptr, ptr, ptr, ptr, ptr, ptr, ptr, ptr, ptr, ptr, ptr, ptr, ptr, ptr, ptr, ptr, ptr, ptr, ptr, ptr, ptr, ptr, ptr, ptr, ptr, ptr, ptr, ptr, ptr, ptr, ptr, ptr, ptr, ptr, ptr, ptr, ptr, ptr, ptr, ptr, ptr, ptr, ptr, ptr, ptr, ptr, ptr, ptr, ptr, ptr, ptr, ptr, ptr, ptr, ptr, ptr, ptr, ptr, ptr, ptr, ptr, ptr, ptr, ptr, ptr, ptr, ptr, ptr, ptr, ptr, ptr, ptr, ptr, ptr, ptr, ptr, ptr, ptr, ptr, ptr, ptr, ptr, ptr, ptr, ptr, ptr, ptr, ptr, ptr, ptr, ptr, ptr, ptr, ptr, ptr, ptr, ptr, ptr, ptr, ptr, ptr, ptr, ptr, ptr, ptr, ptr, ptr, ptr, ptr, ptr, ptr, ptr, ptr, ptr, ptr, ptr, ptr, ptr, ptr, ptr, ptr, ptr, ptr, ptr, ptr, ptr, ptr, ptr, ptr, ptr, ptr, ptr, ptr, ptr, ptr, ptr, ptr, ptr, ptr, ptr, ptr, ptr, ptr, ptr, ptr, ptr, ptr, ptr, ptr, ptr, ptr, ptr, ptr, ptr, ptr, ptr, ptr, ptr, ptr, ptr, ptr, ptr, ptr, ptr, ptr, ptr, ptr, ptr, ptr, ptr, ptr, ptr, ptr, ptr, ptr, ptr, ptr, ptr, ptr, ptr, ptr, ptr, ptr, ptr, ptr, ptr, ptr, ptr, ptr, ptr, ptr, ptr, ptr, ptr, ptr, ptr, ptr, ptr, ptr, ptr, ptr, ptr, ptr, ptr, ptr, ptr, ptr, ptr, ptr, ptr, ptr, ptr, ptr, ptr, ptr, ptr, ptr, ptr, ptr, ptr, ptr, ptr, ptr, ptr, ptr, ptr, ptr, ptr, ptr, ptr, ptr, ptr, ptr, ptr, ptr, ptr, ptr, ptr, ptr, ptr, ptr, ptr, ptr, ptr, ptr, ptr, ptr, ptr, ptr, ptr, ptr, ptr, ptr, ptr, ptr, ptr, ptr, ptr, ptr, ptr, ptr, ptr, ptr, ptr, ptr, ptr, ptr, ptr, ptr, ptr, ptr, ptr, ptr, ptr, ptr, ptr, ptr, ptr, ptr, ptr, ptr, ptr, ptr, ptr, ptr, ptr, ptr, ptr, ptr, ptr, ptr, ptr, ptr, ptr, ptr, ptr, ptr, ptr }
%struct.Tcl_DString = type { ptr, i32, i32, [200 x i8] }
%struct.SqliteDb = type { ptr, ptr, ptr, ptr, ptr, ptr, ptr, ptr, ptr, ptr, i32, ptr, ptr, ptr, ptr, ptr, ptr, ptr, ptr, i32, ptr, ptr, ptr, i32, i32, ptr, i32, i32, i32, i32, i32, i32, i32 }

@tclStubsPtr = external global ptr, align 8
@.str.18 = private unnamed_addr constant [1 x i8] zeroinitializer, align 1
@.str.179 = private unnamed_addr constant [12 x i8] c"SQLITE_COPY\00", align 1
@.str.180 = private unnamed_addr constant [20 x i8] c"SQLITE_CREATE_INDEX\00", align 1
@.str.181 = private unnamed_addr constant [20 x i8] c"SQLITE_CREATE_TABLE\00", align 1
@.str.182 = private unnamed_addr constant [25 x i8] c"SQLITE_CREATE_TEMP_INDEX\00", align 1
@.str.183 = private unnamed_addr constant [25 x i8] c"SQLITE_CREATE_TEMP_TABLE\00", align 1
@.str.184 = private unnamed_addr constant [27 x i8] c"SQLITE_CREATE_TEMP_TRIGGER\00", align 1
@.str.185 = private unnamed_addr constant [24 x i8] c"SQLITE_CREATE_TEMP_VIEW\00", align 1
@.str.186 = private unnamed_addr constant [22 x i8] c"SQLITE_CREATE_TRIGGER\00", align 1
@.str.187 = private unnamed_addr constant [19 x i8] c"SQLITE_CREATE_VIEW\00", align 1
@.str.188 = private unnamed_addr constant [14 x i8] c"SQLITE_DELETE\00", align 1
@.str.189 = private unnamed_addr constant [18 x i8] c"SQLITE_DROP_INDEX\00", align 1
@.str.190 = private unnamed_addr constant [18 x i8] c"SQLITE_DROP_TABLE\00", align 1
@.str.191 = private unnamed_addr constant [23 x i8] c"SQLITE_DROP_TEMP_INDEX\00", align 1
@.str.192 = private unnamed_addr constant [23 x i8] c"SQLITE_DROP_TEMP_TABLE\00", align 1
@.str.193 = private unnamed_addr constant [25 x i8] c"SQLITE_DROP_TEMP_TRIGGER\00", align 1
@.str.194 = private unnamed_addr constant [22 x i8] c"SQLITE_DROP_TEMP_VIEW\00", align 1
@.str.195 = private unnamed_addr constant [20 x i8] c"SQLITE_DROP_TRIGGER\00", align 1
@.str.196 = private unnamed_addr constant [17 x i8] c"SQLITE_DROP_VIEW\00", align 1
@.str.197 = private unnamed_addr constant [14 x i8] c"SQLITE_INSERT\00", align 1
@.str.198 = private unnamed_addr constant [14 x i8] c"SQLITE_PRAGMA\00", align 1
@.str.199 = private unnamed_addr constant [12 x i8] c"SQLITE_READ\00", align 1
@.str.200 = private unnamed_addr constant [14 x i8] c"SQLITE_SELECT\00", align 1
@.str.201 = private unnamed_addr constant [19 x i8] c"SQLITE_TRANSACTION\00", align 1
@.str.202 = private unnamed_addr constant [14 x i8] c"SQLITE_UPDATE\00", align 1
@.str.203 = private unnamed_addr constant [14 x i8] c"SQLITE_ATTACH\00", align 1
@.str.204 = private unnamed_addr constant [14 x i8] c"SQLITE_DETACH\00", align 1
@.str.205 = private unnamed_addr constant [19 x i8] c"SQLITE_ALTER_TABLE\00", align 1
@.str.206 = private unnamed_addr constant [15 x i8] c"SQLITE_REINDEX\00", align 1
@.str.207 = private unnamed_addr constant [15 x i8] c"SQLITE_ANALYZE\00", align 1
@.str.208 = private unnamed_addr constant [21 x i8] c"SQLITE_CREATE_VTABLE\00", align 1
@.str.209 = private unnamed_addr constant [19 x i8] c"SQLITE_DROP_VTABLE\00", align 1
@.str.210 = private unnamed_addr constant [16 x i8] c"SQLITE_FUNCTION\00", align 1
@.str.211 = private unnamed_addr constant [17 x i8] c"SQLITE_SAVEPOINT\00", align 1
@.str.212 = private unnamed_addr constant [17 x i8] c"SQLITE_RECURSIVE\00", align 1
@.str.213 = private unnamed_addr constant [5 x i8] c"????\00", align 1
@.str.214 = private unnamed_addr constant [12 x i8] c"SQLITE_DENY\00", align 1
@.str.215 = private unnamed_addr constant [10 x i8] c"SQLITE_OK\00", align 1
@.str.216 = private unnamed_addr constant [14 x i8] c"SQLITE_IGNORE\00", align 1

; Function Attrs: nounwind uwtable
define internal i32 @auth_callback(ptr noundef %0, i32 noundef %1, ptr noundef %2, ptr noundef %3, ptr noundef %4, ptr noundef %5) #0 {
  %7 = alloca i32, align 4
  %8 = alloca ptr, align 8
  %9 = alloca i32, align 4
  %10 = alloca ptr, align 8
  %11 = alloca ptr, align 8
  %12 = alloca ptr, align 8
  %13 = alloca ptr, align 8
  %14 = alloca ptr, align 8
  %15 = alloca %struct.Tcl_DString, align 8
  %16 = alloca i32, align 4
  %17 = alloca ptr, align 8
  %18 = alloca ptr, align 8
  %19 = alloca i32, align 4
  store ptr %0, ptr %8, align 8, !tbaa !15
  store i32 %1, ptr %9, align 4, !tbaa !8
  store ptr %2, ptr %10, align 8, !tbaa !18
  store ptr %3, ptr %11, align 8, !tbaa !18
  store ptr %4, ptr %12, align 8, !tbaa !18
  store ptr %5, ptr %13, align 8, !tbaa !18
  call void @llvm.lifetime.start.p0(i64 8, ptr %14) #10
  call void @llvm.lifetime.start.p0(i64 216, ptr %15) #10
  call void @llvm.lifetime.start.p0(i64 4, ptr %16) #10
  call void @llvm.lifetime.start.p0(i64 8, ptr %17) #10
  call void @llvm.lifetime.start.p0(i64 8, ptr %18) #10
  %20 = load ptr, ptr %8, align 8, !tbaa !15
  store ptr %20, ptr %18, align 8, !tbaa !30
  %21 = load ptr, ptr %18, align 8, !tbaa !30
  %22 = getelementptr inbounds nuw %struct.SqliteDb, ptr %21, i32 0, i32 10
  %23 = load i32, ptr %22, align 8, !tbaa !130
  %24 = icmp ne i32 %23, 0
  br i1 %24, label %25, label %26

25:                                               ; preds = %6
  store i32 0, ptr %7, align 4
  store i32 1, ptr %19, align 4
  br label %167

26:                                               ; preds = %6
  %27 = load i32, ptr %9, align 4, !tbaa !8
  switch i32 %27, label %62 [
    i32 0, label %28
    i32 1, label %29
    i32 2, label %30
    i32 3, label %31
    i32 4, label %32
    i32 5, label %33
    i32 6, label %34
    i32 7, label %35
    i32 8, label %36
    i32 9, label %37
    i32 10, label %38
    i32 11, label %39
    i32 12, label %40
    i32 13, label %41
    i32 14, label %42
    i32 15, label %43
    i32 16, label %44
    i32 17, label %45
    i32 18, label %46
    i32 19, label %47
    i32 20, label %48
    i32 21, label %49
    i32 22, label %50
    i32 23, label %51
    i32 24, label %52
    i32 25, label %53
    i32 26, label %54
    i32 27, label %55
    i32 28, label %56
    i32 29, label %57
    i32 30, label %58
    i32 31, label %59
    i32 32, label %60
    i32 33, label %61
  ]

28:                                               ; preds = %26
  store ptr @.str.179, ptr %14, align 8, !tbaa !18
  br label %63

29:                                               ; preds = %26
  store ptr @.str.180, ptr %14, align 8, !tbaa !18
  br label %63

30:                                               ; preds = %26
  store ptr @.str.181, ptr %14, align 8, !tbaa !18
  br label %63

31:                                               ; preds = %26
  store ptr @.str.182, ptr %14, align 8, !tbaa !18
  br label %63

32:                                               ; preds = %26
  store ptr @.str.183, ptr %14, align 8, !tbaa !18
  br label %63

33:                                               ; preds = %26
  store ptr @.str.184, ptr %14, align 8, !tbaa !18
  br label %63

34:                                               ; preds = %26
  store ptr @.str.185, ptr %14, align 8, !tbaa !18
  br label %63

35:                                               ; preds = %26
  store ptr @.str.186, ptr %14, align 8, !tbaa !18
  br label %63

36:                                               ; preds = %26
  store ptr @.str.187, ptr %14, align 8, !tbaa !18
  br label %63

37:                                               ; preds = %26
  store ptr @.str.188, ptr %14, align 8, !tbaa !18
  br label %63

38:                                               ; preds = %26
  store ptr @.str.189, ptr %14, align 8, !tbaa !18
  br label %63

39:                                               ; preds = %26
  store ptr @.str.190, ptr %14, align 8, !tbaa !18
  br label %63

40:                                               ; preds = %26
  store ptr @.str.191, ptr %14, align 8, !tbaa !18
  br label %63

41:                                               ; preds = %26
  store ptr @.str.192, ptr %14, align 8, !tbaa !18
  br label %63

42:                                               ; preds = %26
  store ptr @.str.193, ptr %14, align 8, !tbaa !18
  br label %63

43:                                               ; preds = %26
  store ptr @.str.194, ptr %14, align 8, !tbaa !18
  br label %63

44:                                               ; preds = %26
  store ptr @.str.195, ptr %14, align 8, !tbaa !18
  br label %63

45:                                               ; preds = %26
  store ptr @.str.196, ptr %14, align 8, !tbaa !18
  br label %63

46:                                               ; preds = %26
  store ptr @.str.197, ptr %14, align 8, !tbaa !18
  br label %63

47:                                               ; preds = %26
  store ptr @.str.198, ptr %14, align 8, !tbaa !18
  br label %63

48:                                               ; preds = %26
  store ptr @.str.199, ptr %14, align 8, !tbaa !18
  br label %63

49:                                               ; preds = %26
  store ptr @.str.200, ptr %14, align 8, !tbaa !18
  br label %63

50:                                               ; preds = %26
  store ptr @.str.201, ptr %14, align 8, !tbaa !18
  br label %63

51:                                               ; preds = %26
  store ptr @.str.202, ptr %14, align 8, !tbaa !18
  br label %63

52:                                               ; preds = %26
  store ptr @.str.203, ptr %14, align 8, !tbaa !18
  br label %63

53:                                               ; preds = %26
  store ptr @.str.204, ptr %14, align 8, !tbaa !18
  br label %63

54:                                               ; preds = %26
  store ptr @.str.205, ptr %14, align 8, !tbaa !18
  br label %63

55:                                               ; preds = %26
  store ptr @.str.206, ptr %14, align 8, !tbaa !18
  br label %63

56:                                               ; preds = %26
  store ptr @.str.207, ptr %14, align 8, !tbaa !18
  br label %63

57:                                               ; preds = %26
  store ptr @.str.208, ptr %14, align 8, !tbaa !18
  br label %63

58:                                               ; preds = %26
  store ptr @.str.209, ptr %14, align 8, !tbaa !18
  br label %63

59:                                               ; preds = %26
  store ptr @.str.210, ptr %14, align 8, !tbaa !18
  br label %63

60:                                               ; preds = %26
  store ptr @.str.211, ptr %14, align 8, !tbaa !18
  br label %63

61:                                               ; preds = %26
  store ptr @.str.212, ptr %14, align 8, !tbaa !18
  br label %63

62:                                               ; preds = %26
  store ptr @.str.213, ptr %14, align 8, !tbaa !18
  br label %63

63:                                               ; preds = %62, %61, %60, %59, %58, %57, %56, %55, %54, %53, %52, %51, %50, %49, %48, %47, %46, %45, %44, %43, %42, %41, %40, %39, %38, %37, %36, %35, %34, %33, %32, %31, %30, %29, %28
  %64 = load ptr, ptr @tclStubsPtr, align 8, !tbaa !10
  %65 = getelementptr inbounds nuw %struct.TclStubs, ptr %64, i32 0, i32 124
  %66 = load ptr, ptr %65, align 8, !tbaa !135
  call void %66(ptr noundef %15)
  %67 = load ptr, ptr @tclStubsPtr, align 8, !tbaa !10
  %68 = getelementptr inbounds nuw %struct.TclStubs, ptr %67, i32 0, i32 119
  %69 = load ptr, ptr %68, align 8, !tbaa !136
  %70 = load ptr, ptr %18, align 8, !tbaa !30
  %71 = getelementptr inbounds nuw %struct.SqliteDb, ptr %70, i32 0, i32 9
  %72 = load ptr, ptr %71, align 8, !tbaa !52
  %73 = call ptr %69(ptr noundef %15, ptr noundef %72, i32 noundef -1)
  %74 = load ptr, ptr @tclStubsPtr, align 8, !tbaa !10
  %75 = getelementptr inbounds nuw %struct.TclStubs, ptr %74, i32 0, i32 120
  %76 = load ptr, ptr %75, align 8, !tbaa !137
  %77 = load ptr, ptr %14, align 8, !tbaa !18
  %78 = call ptr %76(ptr noundef %15, ptr noundef %77)
  %79 = load ptr, ptr @tclStubsPtr, align 8, !tbaa !10
  %80 = getelementptr inbounds nuw %struct.TclStubs, ptr %79, i32 0, i32 120
  %81 = load ptr, ptr %80, align 8, !tbaa !137
  %82 = load ptr, ptr %10, align 8, !tbaa !18
  %83 = icmp ne ptr %82, null
  br i1 %83, label %84, label %86

84:                                               ; preds = %63
  %85 = load ptr, ptr %10, align 8, !tbaa !18
  br label %87

86:                                               ; preds = %63
  br label %87

87:                                               ; preds = %86, %84
  %88 = phi ptr [ %85, %84 ], [ @.str.18, %86 ]
  %89 = call ptr %81(ptr noundef %15, ptr noundef %88)
  %90 = load ptr, ptr @tclStubsPtr, align 8, !tbaa !10
  %91 = getelementptr inbounds nuw %struct.TclStubs, ptr %90, i32 0, i32 120
  %92 = load ptr, ptr %91, align 8, !tbaa !137
  %93 = load ptr, ptr %11, align 8, !tbaa !18
  %94 = icmp ne ptr %93, null
  br i1 %94, label %95, label %97

95:                                               ; preds = %87
  %96 = load ptr, ptr %11, align 8, !tbaa !18
  br label %98

97:                                               ; preds = %87
  br label %98

98:                                               ; preds = %97, %95
  %99 = phi ptr [ %96, %95 ], [ @.str.18, %97 ]
  %100 = call ptr %92(ptr noundef %15, ptr noundef %99)
  %101 = load ptr, ptr @tclStubsPtr, align 8, !tbaa !10
  %102 = getelementptr inbounds nuw %struct.TclStubs, ptr %101, i32 0, i32 120
  %103 = load ptr, ptr %102, align 8, !tbaa !137
  %104 = load ptr, ptr %12, align 8, !tbaa !18
  %105 = icmp ne ptr %104, null
  br i1 %105, label %106, label %108

106:                                              ; preds = %98
  %107 = load ptr, ptr %12, align 8, !tbaa !18
  br label %109

108:                                              ; preds = %98
  br label %109

109:                                              ; preds = %108, %106
  %110 = phi ptr [ %107, %106 ], [ @.str.18, %108 ]
  %111 = call ptr %103(ptr noundef %15, ptr noundef %110)
  %112 = load ptr, ptr @tclStubsPtr, align 8, !tbaa !10
  %113 = getelementptr inbounds nuw %struct.TclStubs, ptr %112, i32 0, i32 120
  %114 = load ptr, ptr %113, align 8, !tbaa !137
  %115 = load ptr, ptr %13, align 8, !tbaa !18
  %116 = icmp ne ptr %115, null
  br i1 %116, label %117, label %119

117:                                              ; preds = %109
  %118 = load ptr, ptr %13, align 8, !tbaa !18
  br label %120

119:                                              ; preds = %109
  br label %120

120:                                              ; preds = %119, %117
  %121 = phi ptr [ %118, %117 ], [ @.str.18, %119 ]
  %122 = call ptr %114(ptr noundef %15, ptr noundef %121)
  %123 = load ptr, ptr @tclStubsPtr, align 8, !tbaa !10
  %124 = getelementptr inbounds nuw %struct.TclStubs, ptr %123, i32 0, i32 179
  %125 = load ptr, ptr %124, align 8, !tbaa !138
  %126 = load ptr, ptr %18, align 8, !tbaa !30
  %127 = getelementptr inbounds nuw %struct.SqliteDb, ptr %126, i32 0, i32 1
  %128 = load ptr, ptr %127, align 8, !tbaa !45
  %129 = getelementptr inbounds nuw %struct.Tcl_DString, ptr %15, i32 0, i32 0
  %130 = load ptr, ptr %129, align 8, !tbaa !139
  %131 = call i32 %125(ptr noundef %128, ptr noundef %130)
  store i32 %131, ptr %16, align 4, !tbaa !8
  %132 = load ptr, ptr @tclStubsPtr, align 8, !tbaa !10
  %133 = getelementptr inbounds nuw %struct.TclStubs, ptr %132, i32 0, i32 122
  %134 = load ptr, ptr %133, align 8, !tbaa !33
  call void %134(ptr noundef %15)
  %135 = load i32, ptr %16, align 4, !tbaa !8
  %136 = icmp eq i32 %135, 0
  br i1 %136, label %137, label %145

137:                                              ; preds = %120
  %138 = load ptr, ptr @tclStubsPtr, align 8, !tbaa !10
  %139 = getelementptr inbounds nuw %struct.TclStubs, ptr %138, i32 0, i32 176
  %140 = load ptr, ptr %139, align 8, !tbaa !141
  %141 = load ptr, ptr %18, align 8, !tbaa !30
  %142 = getelementptr inbounds nuw %struct.SqliteDb, ptr %141, i32 0, i32 1
  %143 = load ptr, ptr %142, align 8, !tbaa !45
  %144 = call ptr %140(ptr noundef %143)
  br label %146

145:                                              ; preds = %120
  br label %146

146:                                              ; preds = %145, %137
  %147 = phi ptr [ %144, %137 ], [ @.str.214, %145 ]
  store ptr %147, ptr %17, align 8, !tbaa !18
  %148 = load ptr, ptr %17, align 8, !tbaa !18
  %149 = call i32 @strcmp(ptr noundef %148, ptr noundef @.str.215) #11
  %150 = icmp eq i32 %149, 0
  br i1 %150, label %151, label %152

151:                                              ; preds = %146
  store i32 0, ptr %16, align 4, !tbaa !8
  br label %165

152:                                              ; preds = %146
  %153 = load ptr, ptr %17, align 8, !tbaa !18
  %154 = call i32 @strcmp(ptr noundef %153, ptr noundef @.str.214) #11
  %155 = icmp eq i32 %154, 0
  br i1 %155, label %156, label %157

156:                                              ; preds = %152
  store i32 1, ptr %16, align 4, !tbaa !8
  br label %164

157:                                              ; preds = %152
  %158 = load ptr, ptr %17, align 8, !tbaa !18
  %159 = call i32 @strcmp(ptr noundef %158, ptr noundef @.str.216) #11
  %160 = icmp eq i32 %159, 0
  br i1 %160, label %161, label %162

161:                                              ; preds = %157
  store i32 2, ptr %16, align 4, !tbaa !8
  br label %163

162:                                              ; preds = %157
  store i32 999, ptr %16, align 4, !tbaa !8
  br label %163

163:                                              ; preds = %162, %161
  br label %164

164:                                              ; preds = %163, %156
  br label %165

165:                                              ; preds = %164, %151
  %166 = load i32, ptr %16, align 4, !tbaa !8
  store i32 %166, ptr %7, align 4
  store i32 1, ptr %19, align 4
  br label %167

167:                                              ; preds = %165, %25
  call void @llvm.lifetime.end.p0(i64 8, ptr %18) #10
  call void @llvm.lifetime.end.p0(i64 8, ptr %17) #10
  call void @llvm.lifetime.end.p0(i64 4, ptr %16) #10
  call void @llvm.lifetime.end.p0(i64 216, ptr %15) #10
  call void @llvm.lifetime.end.p0(i64 8, ptr %14) #10
  %168 = load i32, ptr %7, align 4
  ret i32 %168
}