; Function Attrs: nounwind uwtable
define internal range(i32 0, 1000) i32 @auth_callback(ptr noundef readonly captures(none) %0, i32 noundef %1, ptr noundef %2, ptr noundef %3, ptr noundef %4, ptr noundef %5) #0 {
  %7 = alloca %struct.Tcl_DString, align 8
  call void @llvm.lifetime.start.p0(i64 216, ptr nonnull %7) #14
  %8 = getelementptr inbounds nuw i8, ptr %0, i64 80
  %9 = load i32, ptr %8, align 8, !tbaa !118
  %.not = icmp eq i32 %9, 0
  br i1 %.not, label %10, label %74

10:                                               ; preds = %6
  %11 = icmp ult i32 %1, 34
  br i1 %11, label %switch.lookup, label %13

switch.lookup:                                    ; preds = %10
  %12 = zext nneg i32 %1 to i64
  %switch.gep = getelementptr inbounds nuw [34 x ptr], ptr @switch.table.auth_callback, i64 0, i64 %12
  %switch.load = load ptr, ptr %switch.gep, align 8
  br label %13

13:                                               ; preds = %10, %switch.lookup
  %.020 = phi ptr [ %switch.load, %switch.lookup ], [ @.str.213, %10 ]
  %14 = load ptr, ptr @tclStubsPtr, align 8, !tbaa !3
  %15 = getelementptr inbounds nuw i8, ptr %14, i64 992
  %16 = load ptr, ptr %15, align 8, !tbaa !122
  call void %16(ptr noundef nonnull %7) #14
  %17 = load ptr, ptr @tclStubsPtr, align 8, !tbaa !3
  %18 = getelementptr inbounds nuw i8, ptr %17, i64 952
  %19 = load ptr, ptr %18, align 8, !tbaa !123
  %20 = getelementptr inbounds nuw i8, ptr %0, i64 72
  %21 = load ptr, ptr %20, align 8, !tbaa !46
  %22 = call ptr %19(ptr noundef nonnull %7, ptr noundef %21, i32 noundef -1) #14
  %23 = load ptr, ptr @tclStubsPtr, align 8, !tbaa !3
  %24 = getelementptr inbounds nuw i8, ptr %23, i64 960
  %25 = load ptr, ptr %24, align 8, !tbaa !124
  %26 = call ptr %25(ptr noundef nonnull %7, ptr noundef nonnull %.020) #14
  %27 = load ptr, ptr @tclStubsPtr, align 8, !tbaa !3
  %28 = getelementptr inbounds nuw i8, ptr %27, i64 960
  %29 = load ptr, ptr %28, align 8, !tbaa !124
  %.not22 = icmp eq ptr %2, null
  %30 = select i1 %.not22, ptr @.str.18, ptr %2
  %31 = call ptr %29(ptr noundef nonnull %7, ptr noundef nonnull %30) #14
  %32 = load ptr, ptr @tclStubsPtr, align 8, !tbaa !3
  %33 = getelementptr inbounds nuw i8, ptr %32, i64 960
  %34 = load ptr, ptr %33, align 8, !tbaa !124
  %.not23 = icmp eq ptr %3, null
  %35 = select i1 %.not23, ptr @.str.18, ptr %3
  %36 = call ptr %34(ptr noundef nonnull %7, ptr noundef nonnull %35) #14
  %37 = load ptr, ptr @tclStubsPtr, align 8, !tbaa !3
  %38 = getelementptr inbounds nuw i8, ptr %37, i64 960
  %39 = load ptr, ptr %38, align 8, !tbaa !124
  %.not24 = icmp eq ptr %4, null
  %40 = select i1 %.not24, ptr @.str.18, ptr %4
  %41 = call ptr %39(ptr noundef nonnull %7, ptr noundef nonnull %40) #14
  %42 = load ptr, ptr @tclStubsPtr, align 8, !tbaa !3
  %43 = getelementptr inbounds nuw i8, ptr %42, i64 960
  %44 = load ptr, ptr %43, align 8, !tbaa !124
  %.not25 = icmp eq ptr %5, null
  %45 = select i1 %.not25, ptr @.str.18, ptr %5
  %46 = call ptr %44(ptr noundef nonnull %7, ptr noundef nonnull %45) #14
  %47 = load ptr, ptr @tclStubsPtr, align 8, !tbaa !3
  %48 = getelementptr inbounds nuw i8, ptr %47, i64 1432
  %49 = load ptr, ptr %48, align 8, !tbaa !125
  %50 = getelementptr inbounds nuw i8, ptr %0, i64 8
  %51 = load ptr, ptr %50, align 8, !tbaa !39
  %52 = load ptr, ptr %7, align 8, !tbaa !126
  %53 = call i32 %49(ptr noundef %51, ptr noundef %52) #14
  %54 = load ptr, ptr @tclStubsPtr, align 8, !tbaa !3
  %55 = getelementptr inbounds nuw i8, ptr %54, i64 976
  %56 = load ptr, ptr %55, align 8, !tbaa !25
  call void %56(ptr noundef nonnull %7) #14
  %57 = icmp eq i32 %53, 0
  br i1 %57, label %58, label %64

58:                                               ; preds = %13
  %59 = load ptr, ptr @tclStubsPtr, align 8, !tbaa !3
  %60 = getelementptr inbounds nuw i8, ptr %59, i64 1408
  %61 = load ptr, ptr %60, align 8, !tbaa !128
  %62 = load ptr, ptr %50, align 8, !tbaa !39
  %63 = call ptr %61(ptr noundef %62) #14
  br label %64

64:                                               ; preds = %13, %58
  %65 = phi ptr [ %63, %58 ], [ @.str.214, %13 ]
  %66 = call i32 @strcmp(ptr noundef nonnull dereferenceable(1) %65, ptr noundef nonnull dereferenceable(10) @.str.215) #15
  %67 = icmp eq i32 %66, 0
  br i1 %67, label %74, label %68

68:                                               ; preds = %64
  %69 = call i32 @strcmp(ptr noundef nonnull dereferenceable(1) %65, ptr noundef nonnull dereferenceable(12) @.str.214) #15
  %70 = icmp eq i32 %69, 0
  br i1 %70, label %74, label %71

71:                                               ; preds = %68
  %72 = call i32 @strcmp(ptr noundef nonnull dereferenceable(1) %65, ptr noundef nonnull dereferenceable(14) @.str.216) #15
  %73 = icmp eq i32 %72, 0
  %. = select i1 %73, i32 2, i32 999
  br label %74

74:                                               ; preds = %64, %68, %71, %6
  %.0 = phi i32 [ 0, %6 ], [ 0, %64 ], [ 1, %68 ], [ %., %71 ]
  call void @llvm.lifetime.end.p0(i64 216, ptr nonnull %7) #14
  ret i32 %.0
}